; Function Attrs: nounwind uwtable
define i32 @duckdb_je_ctl_bymib(ptr noundef %0, ptr noundef %1, i64 noundef %2, ptr noundef %3, ptr noundef %4, ptr noundef %5, i64 noundef %6) local_unnamed_addr #0 {
  %.b15 = load i1, ptr @ctl_initialized, align 1
  br i1 %.b15, label %10, label %8

8:                                                ; preds = %7
  %9 = tail call fastcc zeroext i1 @ctl_init(ptr noundef %0)
  br i1 %9, label %ctl_lookupbymib.exit, label %10

10:                                               ; preds = %8, %7
  %.not.i = icmp eq i64 %2, 0
  br i1 %.not.i, label %.thread, label %.lr.ph.i

.lr.ph.i:                                         ; preds = %10, %26
  %.02440.i = phi i64 [ %27, %26 ], [ 0, %10 ]
  %.02539.i = phi ptr [ %.2.i, %26 ], [ @super_root_node, %10 ]
  %11 = getelementptr inbounds nuw i8, ptr %.02539.i, i64 24
  %12 = load ptr, ptr %11, align 8, !tbaa !43
  %13 = load i8, ptr %12, align 1, !tbaa !44, !range !45, !noundef !46
  %14 = trunc nuw i8 %13 to i1
  %15 = getelementptr inbounds nuw i64, ptr %1, i64 %.02440.i
  %16 = load i64, ptr %15, align 8, !tbaa !3
  br i1 %14, label %17, label %22

17:                                               ; preds = %.lr.ph.i
  %18 = getelementptr inbounds nuw i8, ptr %.02539.i, i64 16
  %19 = load i64, ptr %18, align 8, !tbaa !47
  %.not33.i = icmp ugt i64 %19, %16
  br i1 %.not33.i, label %20, label %ctl_lookupbymib.exit

20:                                               ; preds = %17
  %21 = getelementptr inbounds nuw %struct.ctl_named_node_s, ptr %12, i64 %16
  br label %26

22:                                               ; preds = %.lr.ph.i
  %23 = getelementptr inbounds nuw i8, ptr %12, i64 8
  %24 = load ptr, ptr %23, align 8, !tbaa !49
  %25 = tail call ptr %24(ptr noundef %0, ptr noundef nonnull %1, i64 noundef %2, i64 noundef %16) #14
  %.not32.i = icmp eq ptr %25, null
  br i1 %.not32.i, label %ctl_lookupbymib.exit, label %26

26:                                               ; preds = %22, %20
  %.2.i = phi ptr [ %21, %20 ], [ %25, %22 ]
  %27 = add nuw i64 %.02440.i, 1
  %exitcond.not.i = icmp eq i64 %27, %2
  br i1 %exitcond.not.i, label %28, label %.lr.ph.i

28:                                               ; preds = %26
  %.not16 = icmp eq ptr %.2.i, null
  br i1 %.not16, label %ctl_lookupbymib.exit, label %.thread

.thread:                                          ; preds = %10, %28
  %.018.ph25 = phi ptr [ %.2.i, %28 ], [ @super_root_node, %10 ]
  %29 = getelementptr inbounds nuw i8, ptr %.018.ph25, i64 32
  %30 = load ptr, ptr %29, align 8, !tbaa !10
  %.not17 = icmp eq ptr %30, null
  br i1 %.not17, label %ctl_lookupbymib.exit, label %31

31:                                               ; preds = %.thread
  %32 = tail call i32 %30(ptr noundef %0, ptr noundef %1, i64 noundef %2, ptr noundef %3, ptr noundef %4, ptr noundef %5, i64 noundef %6) #14
  br label %ctl_lookupbymib.exit

ctl_lookupbymib.exit:                             ; preds = %22, %17, %28, %.thread, %8, %31
  %.0 = phi i32 [ %32, %31 ], [ 11, %8 ], [ 2, %.thread ], [ 2, %28 ], [ 2, %17 ], [ 2, %22 ]
  ret i32 %.0
}